target datalayout = "e-m:e-p270:32:32-p271:32:32-p272:64:64-i64:64-i128:128-f80:128-n8:16:32:64-S128"
target triple = "x86_64-pc-linux-gnu"

@.str.19 = private unnamed_addr constant [4 x i8] c"s%d\00", align 1
@.str.20 = private unnamed_addr constant [7 x i8] c"temp.v\00", align 1

; Function Attrs: inlinehint nounwind uwtable
define internal ptr @Abc_UtilStrsav(ptr noundef %0) #4 {
  %2 = alloca ptr, align 8
  store ptr %0, ptr %2, align 8, !tbaa !24
  %3 = load ptr, ptr %2, align 8, !tbaa !24
  %4 = icmp ne ptr %3, null
  br i1 %4, label %5, label %13

5:                                                ; preds = %1
  %6 = load ptr, ptr %2, align 8, !tbaa !24
  %7 = call i64 @strlen(ptr noundef %6) #12
  %8 = add i64 %7, 1
  %9 = mul i64 1, %8
  %10 = call noalias ptr @malloc(i64 noundef %9) #13
  %11 = load ptr, ptr %2, align 8, !tbaa !24
  %12 = call ptr @strcpy(ptr noundef %10, ptr noundef %11) #11
  br label %14

13:                                               ; preds = %1
  br label %14

14:                                               ; preds = %13, %5
  %15 = phi ptr [ %12, %5 ], [ null, %13 ]
  ret ptr %15
}

; Function Attrs: nounwind uwtable
define void @Ndr_DumpNdr(ptr noundef %0) #0 {
  %2 = alloca ptr, align 8
  %3 = alloca i32, align 4
  %4 = alloca ptr, align 8
  %5 = alloca [100 x i8], align 16
  store ptr %0, ptr %2, align 8, !tbaa !15
  call void @llvm.lifetime.start.p0(i64 4, ptr %3) #11
  call void @llvm.lifetime.start.p0(i64 8, ptr %4) #11
  %6 = call noalias ptr @calloc(i64 noundef 10000, i64 noundef 8) #14
  store ptr %6, ptr %4, align 8, !tbaa !52
  store i32 0, ptr %3, align 4, !tbaa !3
  br label %7

7:                                                ; preds = %20, %1
  %8 = load i32, ptr %3, align 4, !tbaa !3
  %9 = icmp slt i32 %8, 10000
  br i1 %9, label %10, label %23

10:                                               ; preds = %7
  call void @llvm.lifetime.start.p0(i64 100, ptr %5) #11
  %11 = getelementptr inbounds [100 x i8], ptr %5, i64 0, i64 0
  %12 = load i32, ptr %3, align 4, !tbaa !3
  %13 = call i32 (ptr, ptr, ...) @sprintf(ptr noundef %11, ptr noundef @.str.19, i32 noundef %12) #11
  %14 = getelementptr inbounds [100 x i8], ptr %5, i64 0, i64 0
  %15 = call ptr @Abc_UtilStrsav(ptr noundef %14)
  %16 = load ptr, ptr %4, align 8, !tbaa !52
  %17 = load i32, ptr %3, align 4, !tbaa !3
  %18 = sext i32 %17 to i64
  %19 = getelementptr inbounds ptr, ptr %16, i64 %18
  store ptr %15, ptr %19, align 8, !tbaa !24
  call void @llvm.lifetime.end.p0(i64 100, ptr %5) #11
  br label %20

20:                                               ; preds = %10
  %21 = load i32, ptr %3, align 4, !tbaa !3
  %22 = add nsw i32 %21, 1
  store i32 %22, ptr %3, align 4, !tbaa !3
  br label %7, !llvm.loop !104

23:                                               ; preds = %7
  %24 = load ptr, ptr %2, align 8, !tbaa !15
  %25 = load ptr, ptr %4, align 8, !tbaa !52
  call void @Ndr_WriteVerilog(ptr noundef @.str.20, ptr noundef %24, ptr noundef %25, i32 noundef 0)
  call void @llvm.lifetime.end.p0(i64 8, ptr %4) #11
  call void @llvm.lifetime.end.p0(i64 4, ptr %3) #11
  ret void
}