; Function Attrs: nounwind uwtable
define void @Ndr_DumpNdr(ptr noundef readonly captures(none) %0) local_unnamed_addr #5 {
  %2 = alloca [100 x i8], align 16
  %3 = tail call noalias dereferenceable_or_null(80000) ptr @calloc(i64 noundef 10000, i64 noundef 8) #26
  br label %4

4:                                                ; preds = %1, %4
  %indvars.iv = phi i64 [ 0, %1 ], [ %indvars.iv.next, %4 ]
  call void @llvm.lifetime.start.p0(i64 100, ptr nonnull %2) #22
  %5 = trunc nuw nsw i64 %indvars.iv to i32
  %6 = call i32 (ptr, ptr, ...) @sprintf(ptr noundef nonnull dereferenceable(1) %2, ptr noundef nonnull dereferenceable(1) @.str.19, i32 noundef %5) #22
  %7 = call i64 @strlen(ptr noundef nonnull readonly dereferenceable(1) %2) #23
  %8 = add i64 %7, 1
  %9 = tail call noalias noundef ptr @malloc(i64 noundef %8) #24
  %10 = call ptr @strcpy(ptr noundef nonnull dereferenceable(1) %9, ptr noundef nonnull readonly dereferenceable(1) %2) #22
  %11 = getelementptr inbounds nuw ptr, ptr %3, i64 %indvars.iv
  store ptr %9, ptr %11, align 8, !tbaa !39
  call void @llvm.lifetime.end.p0(i64 100, ptr nonnull %2) #22
  %indvars.iv.next = add nuw nsw i64 %indvars.iv, 1
  %exitcond.not = icmp eq i64 %indvars.iv.next, 10000
  br i1 %exitcond.not, label %12, label %4, !llvm.loop !96

12:                                               ; preds = %4
  tail call fastcc void @Ndr_WriteVerilog(ptr noundef nonnull @.str.20, ptr noundef %0, ptr noundef nonnull %3)
  ret void
}